; Function Attrs: mustprogress nounwind uwtable
define noundef nonnull align 8 dereferenceable(8) ptr @_ZN9grpc_core11ChannelArgsaSEOS0_(ptr noundef nonnull returned align 8 dereferenceable(8) %0, ptr noundef nonnull align 8 captures(none) dereferenceable(8) %1) local_unnamed_addr #13 align 2 personality ptr @__gxx_personality_v0 {
  %3 = load ptr, ptr %1, align 8, !tbaa !25
  store ptr null, ptr %1, align 8, !tbaa !25
  %4 = load ptr, ptr %0, align 8, !tbaa !25
  store ptr %3, ptr %0, align 8, !tbaa !25
  %.not.i.i.i = icmp eq ptr %4, null
  br i1 %.not.i.i.i, label %_ZN9grpc_core3AVLINS_21RefCountedStringValueENS_11ChannelArgs5ValueEEaSEOS4_.exit, label %5

5:                                                ; preds = %2
  %6 = atomicrmw sub ptr %4, i64 1 acq_rel, align 8
  %7 = icmp eq i64 %6, 1
  br i1 %7, label %8, label %_ZN9grpc_core3AVLINS_21RefCountedStringValueENS_11ChannelArgs5ValueEEaSEOS4_.exit, !prof !24

8:                                                ; preds = %5
  tail call void @_ZNK9grpc_core11UnrefDeleteclIKNS_3AVLINS_21RefCountedStringValueENS_11ChannelArgs5ValueEE4NodeEEEvPT_(ptr noundef nonnull align 8 dereferenceable(8) %4, ptr noundef nonnull align 8 dereferenceable(8) %4)
  br label %_ZN9grpc_core3AVLINS_21RefCountedStringValueENS_11ChannelArgs5ValueEEaSEOS4_.exit

_ZN9grpc_core3AVLINS_21RefCountedStringValueENS_11ChannelArgs5ValueEEaSEOS4_.exit: ; preds = %2, %5, %8
  ret ptr %0
}